target datalayout = "e-m:e-p270:32:32-p271:32:32-p272:64:64-i64:64-i128:128-f80:128-n8:16:32:64-S128"
target triple = "x86_64-pc-linux-gnu"

%struct.yyguts_t = type { ptr, ptr, ptr, i64, i64, ptr, i8, i32, i32, ptr, i32, i32, i32, i32, i32, ptr, i32, ptr, i32, i32, ptr, i32, i32 }
%struct.Dtd_Parse_scanner_state_t = type { ptr, i64, i64, ptr, ptr, ptr }
%struct._dtd_build_data_t = type { ptr, ptr, ptr, ptr, i8, ptr, ptr, ptr }
%struct._GString = type { ptr, i64, i64 }

@build_data = internal global ptr null, align 8
@.str.14 = private unnamed_addr constant [1 x i8] zeroinitializer, align 1

; Function Attrs: nounwind null_pointer_is_valid sspstrong uwtable
define internal i32 @yy_init_globals(ptr noundef %0) #2 {
  %2 = alloca ptr, align 8
  %3 = alloca ptr, align 8
  store ptr %0, ptr %2, align 8
  call void @llvm.lifetime.start.p0(i64 8, ptr %3) #16
  %4 = load ptr, ptr %2, align 8
  store ptr %4, ptr %3, align 8
  %5 = load ptr, ptr %3, align 8
  %6 = getelementptr inbounds nuw %struct.yyguts_t, ptr %5, i32 0, i32 5
  store ptr null, ptr %6, align 8
  %7 = load ptr, ptr %3, align 8
  %8 = getelementptr inbounds nuw %struct.yyguts_t, ptr %7, i32 0, i32 3
  store i64 0, ptr %8, align 8
  %9 = load ptr, ptr %3, align 8
  %10 = getelementptr inbounds nuw %struct.yyguts_t, ptr %9, i32 0, i32 4
  store i64 0, ptr %10, align 8
  %11 = load ptr, ptr %3, align 8
  %12 = getelementptr inbounds nuw %struct.yyguts_t, ptr %11, i32 0, i32 9
  store ptr null, ptr %12, align 8
  %13 = load ptr, ptr %3, align 8
  %14 = getelementptr inbounds nuw %struct.yyguts_t, ptr %13, i32 0, i32 10
  store i32 0, ptr %14, align 8
  %15 = load ptr, ptr %3, align 8
  %16 = getelementptr inbounds nuw %struct.yyguts_t, ptr %15, i32 0, i32 11
  store i32 0, ptr %16, align 4
  %17 = load ptr, ptr %3, align 8
  %18 = getelementptr inbounds nuw %struct.yyguts_t, ptr %17, i32 0, i32 13
  store i32 0, ptr %18, align 4
  %19 = load ptr, ptr %3, align 8
  %20 = getelementptr inbounds nuw %struct.yyguts_t, ptr %19, i32 0, i32 14
  store i32 0, ptr %20, align 8
  %21 = load ptr, ptr %3, align 8
  %22 = getelementptr inbounds nuw %struct.yyguts_t, ptr %21, i32 0, i32 15
  store ptr null, ptr %22, align 8
  %23 = load ptr, ptr %3, align 8
  %24 = getelementptr inbounds nuw %struct.yyguts_t, ptr %23, i32 0, i32 1
  store ptr null, ptr %24, align 8
  %25 = load ptr, ptr %3, align 8
  %26 = getelementptr inbounds nuw %struct.yyguts_t, ptr %25, i32 0, i32 2
  store ptr null, ptr %26, align 8
  call void @llvm.lifetime.end.p0(i64 8, ptr %3) #16
  ret i32 0
}

; Function Attrs: alwaysinline nounwind
define internal ptr @memset.inline(ptr %0, i32 %1, i64 %2) #9 {
  %4 = alloca ptr, align 8
  %5 = alloca i32, align 4
  %6 = alloca i64, align 8
  store ptr %0, ptr %4, align 8
  store i32 %1, ptr %5, align 4
  store i64 %2, ptr %6, align 8
  %7 = load ptr, ptr %4, align 8
  %8 = load i32, ptr %5, align 4
  %9 = load i64, ptr %6, align 8
  %10 = load ptr, ptr %4, align 8
  %11 = call i64 @llvm.objectsize.i64.p0(ptr %10, i1 false, i1 true, i1 true)
  %12 = call ptr @__memset_chk(ptr noundef %7, i32 noundef %8, i64 noundef %9, i64 noundef %11) #16
  ret ptr %12
}

; Function Attrs: nounwind null_pointer_is_valid sspstrong uwtable
define hidden void @Dtd_Parse_set_extra(ptr noundef %0, ptr noundef %1) #2 {
  %3 = alloca ptr, align 8
  %4 = alloca ptr, align 8
  %5 = alloca ptr, align 8
  store ptr %0, ptr %3, align 8
  store ptr %1, ptr %4, align 8
  call void @llvm.lifetime.start.p0(i64 8, ptr %5) #16
  %6 = load ptr, ptr %4, align 8
  store ptr %6, ptr %5, align 8
  %7 = load ptr, ptr %3, align 8
  %8 = load ptr, ptr %5, align 8
  %9 = getelementptr inbounds nuw %struct.yyguts_t, ptr %8, i32 0, i32 0
  store ptr %7, ptr %9, align 8
  call void @llvm.lifetime.end.p0(i64 8, ptr %5) #16
  ret void
}

; Function Attrs: null_pointer_is_valid sspstrong uwtable
define hidden i32 @Dtd_Parse_lex_init(ptr noundef %0) #0 {
  %2 = alloca i32, align 4
  %3 = alloca ptr, align 8
  store ptr %0, ptr %3, align 8
  %4 = load ptr, ptr %3, align 8
  %5 = icmp eq ptr %4, null
  br i1 %5, label %6, label %8

6:                                                ; preds = %1
  %7 = call ptr @__errno_location() #23
  store i32 22, ptr %7, align 4
  store i32 1, ptr %2, align 4
  br label %23

8:                                                ; preds = %1
  %9 = call noalias ptr @malloc(i64 noundef 144) #18
  %10 = load ptr, ptr %3, align 8
  store ptr %9, ptr %10, align 8
  %11 = load ptr, ptr %3, align 8
  %12 = load ptr, ptr %11, align 8
  %13 = icmp eq ptr %12, null
  br i1 %13, label %14, label %16

14:                                               ; preds = %8
  %15 = call ptr @__errno_location() #23
  store i32 12, ptr %15, align 4
  store i32 1, ptr %2, align 4
  br label %23

16:                                               ; preds = %8
  %17 = load ptr, ptr %3, align 8
  %18 = load ptr, ptr %17, align 8
  %19 = call ptr @memset.inline(ptr noundef %18, i32 noundef 0, i64 noundef 144) #16
  %20 = load ptr, ptr %3, align 8
  %21 = load ptr, ptr %20, align 8
  %22 = call i32 @yy_init_globals(ptr noundef %21)
  store i32 %22, ptr %2, align 4
  br label %23

23:                                               ; preds = %16, %14, %6
  %24 = load i32, ptr %2, align 4
  ret i32 %24
}

; Function Attrs: null_pointer_is_valid sspstrong uwtable
define hidden ptr @dtd_parse(ptr noundef %0) #0 {
  %2 = alloca ptr, align 8
  %3 = alloca ptr, align 8
  %4 = alloca ptr, align 8
  %5 = alloca %struct.Dtd_Parse_scanner_state_t, align 8
  %6 = alloca i32, align 4
  %7 = alloca i64, align 8
  %8 = alloca i64, align 8
  %9 = alloca ptr, align 8
  %10 = alloca ptr, align 8
  store ptr %0, ptr %3, align 8
  call void @llvm.lifetime.start.p0(i64 8, ptr %4) #16
  call void @llvm.lifetime.start.p0(i64 48, ptr %5) #16
  %11 = call i32 @Dtd_Parse_lex_init(ptr noundef %4)
  %12 = icmp ne i32 %11, 0
  br i1 %12, label %13, label %14

13:                                               ; preds = %1
  store ptr null, ptr %2, align 8
  store i32 1, ptr %6, align 4
  br label %88

14:                                               ; preds = %1
  %15 = load ptr, ptr %3, align 8
  %16 = getelementptr inbounds nuw %struct.Dtd_Parse_scanner_state_t, ptr %5, i32 0, i32 0
  store ptr %15, ptr %16, align 8
  %17 = getelementptr inbounds nuw %struct.Dtd_Parse_scanner_state_t, ptr %5, i32 0, i32 1
  store i64 0, ptr %17, align 8
  %18 = getelementptr inbounds nuw %struct.Dtd_Parse_scanner_state_t, ptr %5, i32 0, i32 0
  %19 = load ptr, ptr %18, align 8
  %20 = getelementptr inbounds nuw %struct._GString, ptr %19, i32 0, i32 1
  %21 = load i64, ptr %20, align 8
  %22 = getelementptr inbounds nuw %struct.Dtd_Parse_scanner_state_t, ptr %5, i32 0, i32 2
  store i64 %21, ptr %22, align 8
  %23 = call ptr @DtdParseAlloc(ptr noundef @g_malloc)
  %24 = getelementptr inbounds nuw %struct.Dtd_Parse_scanner_state_t, ptr %5, i32 0, i32 3
  store ptr %23, ptr %24, align 8
  call void @llvm.lifetime.start.p0(i64 8, ptr %7) #16
  store i64 1, ptr %7, align 8
  call void @llvm.lifetime.start.p0(i64 8, ptr %8) #16
  store i64 64, ptr %8, align 8
  call void @llvm.lifetime.start.p0(i64 8, ptr %9) #16
  %25 = load i64, ptr %8, align 8
  %26 = icmp eq i64 %25, 1
  br i1 %26, label %27, label %30

27:                                               ; preds = %14
  %28 = load i64, ptr %7, align 8
  %29 = call noalias ptr @g_malloc(i64 noundef %28) #20
  store ptr %29, ptr %9, align 8
  br label %51

30:                                               ; preds = %14
  %31 = load i64, ptr %7, align 8
  %32 = call i1 @llvm.is.constant.i64(i64 %31)
  br i1 %32, label %33, label %46

33:                                               ; preds = %30
  %34 = load i64, ptr %8, align 8
  %35 = icmp eq i64 %34, 0
  br i1 %35, label %41, label %36

36:                                               ; preds = %33
  %37 = load i64, ptr %7, align 8
  %38 = load i64, ptr %8, align 8
  %39 = udiv i64 -1, %38
  %40 = icmp ule i64 %37, %39
  br i1 %40, label %41, label %46

41:                                               ; preds = %36, %33
  %42 = load i64, ptr %7, align 8
  %43 = load i64, ptr %8, align 8
  %44 = mul i64 %42, %43
  %45 = call noalias ptr @g_malloc(i64 noundef %44) #20
  store ptr %45, ptr %9, align 8
  br label %50

46:                                               ; preds = %36, %30
  %47 = load i64, ptr %7, align 8
  %48 = load i64, ptr %8, align 8
  %49 = call noalias ptr @g_malloc_n(i64 noundef %47, i64 noundef %48) #21
  store ptr %49, ptr %9, align 8
  br label %50

50:                                               ; preds = %46, %41
  br label %51

51:                                               ; preds = %50, %27
  %52 = load ptr, ptr %9, align 8
  store ptr %52, ptr %10, align 8
  call void @llvm.lifetime.end.p0(i64 8, ptr %9) #16
  call void @llvm.lifetime.end.p0(i64 8, ptr %8) #16
  call void @llvm.lifetime.end.p0(i64 8, ptr %7) #16
  %53 = load ptr, ptr %10, align 8
  store ptr %53, ptr @build_data, align 8
  %54 = load ptr, ptr @build_data, align 8
  %55 = getelementptr inbounds nuw %struct._dtd_build_data_t, ptr %54, i32 0, i32 0
  store ptr null, ptr %55, align 8
  %56 = load ptr, ptr @build_data, align 8
  %57 = getelementptr inbounds nuw %struct._dtd_build_data_t, ptr %56, i32 0, i32 1
  store ptr null, ptr %57, align 8
  %58 = load ptr, ptr @build_data, align 8
  %59 = getelementptr inbounds nuw %struct._dtd_build_data_t, ptr %58, i32 0, i32 2
  store ptr null, ptr %59, align 8
  %60 = load ptr, ptr @build_data, align 8
  %61 = getelementptr inbounds nuw %struct._dtd_build_data_t, ptr %60, i32 0, i32 3
  store ptr null, ptr %61, align 8
  %62 = load ptr, ptr @build_data, align 8
  %63 = getelementptr inbounds nuw %struct._dtd_build_data_t, ptr %62, i32 0, i32 4
  store i8 0, ptr %63, align 8
  %64 = call ptr @g_ptr_array_new()
  %65 = load ptr, ptr @build_data, align 8
  %66 = getelementptr inbounds nuw %struct._dtd_build_data_t, ptr %65, i32 0, i32 5
  store ptr %64, ptr %66, align 8
  %67 = call ptr @g_ptr_array_new()
  %68 = load ptr, ptr @build_data, align 8
  %69 = getelementptr inbounds nuw %struct._dtd_build_data_t, ptr %68, i32 0, i32 6
  store ptr %67, ptr %69, align 8
  %70 = call ptr @g_string_new(ptr noundef @.str.14)
  %71 = load ptr, ptr @build_data, align 8
  %72 = getelementptr inbounds nuw %struct._dtd_build_data_t, ptr %71, i32 0, i32 7
  store ptr %70, ptr %72, align 8
  %73 = getelementptr inbounds nuw %struct.Dtd_Parse_scanner_state_t, ptr %5, i32 0, i32 4
  store ptr null, ptr %73, align 8
  %74 = getelementptr inbounds nuw %struct.Dtd_Parse_scanner_state_t, ptr %5, i32 0, i32 5
  store ptr null, ptr %74, align 8
  %75 = load ptr, ptr %4, align 8
  call void @Dtd_Parse_set_extra(ptr noundef %5, ptr noundef %75)
  %76 = load ptr, ptr %4, align 8
  %77 = call i32 @Dtd_Parse_lex(ptr noundef %76)
  %78 = getelementptr inbounds nuw %struct.Dtd_Parse_scanner_state_t, ptr %5, i32 0, i32 3
  %79 = load ptr, ptr %78, align 8
  %80 = load ptr, ptr @build_data, align 8
  call void @DtdParse(ptr noundef %79, i32 noundef 0, ptr noundef null, ptr noundef %80)
  %81 = load ptr, ptr %4, align 8
  %82 = call i32 @Dtd_Parse_lex_destroy(ptr noundef %81)
  %83 = getelementptr inbounds nuw %struct.Dtd_Parse_scanner_state_t, ptr %5, i32 0, i32 4
  %84 = load ptr, ptr %83, align 8
  call void @g_free(ptr noundef %84)
  %85 = getelementptr inbounds nuw %struct.Dtd_Parse_scanner_state_t, ptr %5, i32 0, i32 3
  %86 = load ptr, ptr %85, align 8
  call void @DtdParseFree(ptr noundef %86, ptr noundef @g_free)
  %87 = load ptr, ptr @build_data, align 8
  store ptr %87, ptr %2, align 8
  store i32 1, ptr %6, align 4
  br label %88

88:                                               ; preds = %51, %13
  call void @llvm.lifetime.end.p0(i64 48, ptr %5) #16
  call void @llvm.lifetime.end.p0(i64 8, ptr %4) #16
  %89 = load ptr, ptr %2, align 8
  ret ptr %89
}