; Function Attrs: null_pointer_is_valid sspstrong uwtable
define hidden ptr @dtd_parse(ptr noundef %0) local_unnamed_addr #0 {
  %2 = alloca %struct.Dtd_Parse_scanner_state_t, align 8
  call void @llvm.lifetime.start.p0(i64 48, ptr nonnull %2) #27
  %calloc.i = tail call dereferenceable_or_null(144) ptr @calloc(i64 1, i64 144)
  %3 = icmp eq ptr %calloc.i, null
  br i1 %3, label %Dtd_Parse_lex_init.exit, label %5

Dtd_Parse_lex_init.exit:                          ; preds = %1
  %4 = tail call ptr @__errno_location() #29
  store i32 12, ptr %4, align 4
  br label %30

5:                                                ; preds = %1
  store ptr %0, ptr %2, align 8
  %6 = getelementptr inbounds nuw i8, ptr %2, i64 8
  store i64 0, ptr %6, align 8
  %7 = getelementptr inbounds nuw i8, ptr %0, i64 8
  %8 = load i64, ptr %7, align 8
  %9 = getelementptr inbounds nuw i8, ptr %2, i64 16
  store i64 %8, ptr %9, align 8
  %10 = tail call ptr @DtdParseAlloc(ptr noundef nonnull @g_malloc)
  %11 = getelementptr inbounds nuw i8, ptr %2, i64 24
  store ptr %10, ptr %11, align 8
  %12 = tail call noalias dereferenceable_or_null(64) ptr @g_malloc(i64 noundef 64) #24
  store ptr %12, ptr @build_data, align 8
  tail call void @llvm.memset.p0.i64(ptr noundef align 8 dereferenceable(33) %12, i8 0, i64 33, i1 false)
  %13 = tail call ptr @g_ptr_array_new()
  %14 = load ptr, ptr @build_data, align 8
  %15 = getelementptr inbounds nuw i8, ptr %14, i64 40
  store ptr %13, ptr %15, align 8
  %16 = tail call ptr @g_ptr_array_new()
  %17 = load ptr, ptr @build_data, align 8
  %18 = getelementptr inbounds nuw i8, ptr %17, i64 48
  store ptr %16, ptr %18, align 8
  %19 = tail call ptr @g_string_new(ptr noundef nonnull @.str.14)
  %20 = load ptr, ptr @build_data, align 8
  %21 = getelementptr inbounds nuw i8, ptr %20, i64 56
  store ptr %19, ptr %21, align 8
  %22 = getelementptr inbounds nuw i8, ptr %2, i64 32
  call void @llvm.memset.p0.i64(ptr noundef nonnull align 8 dereferenceable(16) %22, i8 0, i64 16, i1 false)
  store ptr %2, ptr %calloc.i, align 8
  %23 = call i32 @Dtd_Parse_lex(ptr noundef nonnull %calloc.i)
  %24 = load ptr, ptr %11, align 8
  %25 = load ptr, ptr @build_data, align 8
  call void @DtdParse(ptr noundef %24, i32 noundef 0, ptr noundef null, ptr noundef %25)
  %26 = call i32 @Dtd_Parse_lex_destroy(ptr noundef nonnull %calloc.i)
  %27 = load ptr, ptr %22, align 8
  call void @g_free(ptr noundef %27)
  %28 = load ptr, ptr %11, align 8
  call void @DtdParseFree(ptr noundef %28, ptr noundef nonnull @g_free)
  %29 = load ptr, ptr @build_data, align 8
  br label %30

30:                                               ; preds = %Dtd_Parse_lex_init.exit, %5
  %.0 = phi ptr [ %29, %5 ], [ null, %Dtd_Parse_lex_init.exit ]
  call void @llvm.lifetime.end.p0(i64 48, ptr nonnull %2) #27
  ret ptr %.0
}